; Function Attrs: nounwind uwtable
define void @_ZTv0_n24_N14colvarbias_albD0Ev(ptr noundef %0) unnamed_addr #5 align 2 {
  %2 = load ptr, ptr %0, align 8
  %3 = getelementptr inbounds i8, ptr %2, i64 -24
  %4 = load i64, ptr %3, align 8
  %5 = getelementptr inbounds i8, ptr %0, i64 %4
  tail call void @_ZN14colvarbias_albD2Ev(ptr noundef nonnull align 8 dereferenceable(541) %5, ptr noundef nonnull @_ZTT14colvarbias_alb) #21
  %6 = getelementptr inbounds i8, ptr %5, i64 864
  tail call void @_ZN10colvardepsD2Ev(ptr noundef nonnull align 8 dereferenceable(120) %6) #21
  %7 = getelementptr inbounds i8, ptr %5, i64 544
  tail call void @_ZN11colvarparseD2Ev(ptr noundef nonnull align 8 dereferenceable(320) %7) #21
  tail call void @_ZdlPv(ptr noundef nonnull %5) #20
  ret void
}